; Function Attrs: mustprogress uwtable
define hidden void @_ZN4lean16trace_comp_declsERKNS_8list_refINS_8pair_refINS_4nameENS_4exprEEEEE(ptr noundef nonnull readonly align 8 captures(none) dereferenceable(8) %0) local_unnamed_addr #0 {
  %.sroa.04.07 = load ptr, ptr %0, align 8, !tbaa !22
  %.not8 = icmp eq ptr %.sroa.04.07, inttoptr (i64 1 to ptr)
  br i1 %.not8, label %._crit_edge, label %.lr.ph

._crit_edge:                                      ; preds = %.lr.ph, %1
  ret void

.lr.ph:                                           ; preds = %1, %.lr.ph
  %.sroa.04.09 = phi ptr [ %.sroa.04.0, %.lr.ph ], [ %.sroa.04.07, %1 ]
  %2 = getelementptr inbounds nuw i8, ptr %.sroa.04.09, i64 8
  tail call void @_ZN4lean15trace_comp_declERKNS_8pair_refINS_4nameENS_4exprEEE(ptr noundef nonnull align 8 dereferenceable(8) %2)
  %3 = getelementptr inbounds nuw i8, ptr %.sroa.04.09, i64 16
  %.sroa.04.0 = load ptr, ptr %3, align 8, !tbaa !22
  %.not = icmp eq ptr %.sroa.04.0, inttoptr (i64 1 to ptr)
  br i1 %.not, label %._crit_edge, label %.lr.ph
}